Certificate:
    Data:
        Version: 3 (0x2)
        Serial Number: 2 (0x2)
    Signature Algorithm: sha256WithRSAEncryption
        Issuer: C=ES, ST=Some-State, O=practica3CA, CN=practica3CA
        Validity
            Not Before: Dec 26 17:10:24 2017 GMT
            Not After : Dec 26 17:10:24 2018 GMT
        Subject: C=ES, ST=Some-State, O=practica3CA, CN=server
        Subject Public Key Info:
            Public Key Algorithm: rsaEncryption
                Public-Key: (2048 bit)
                Modulus:
                    00:ab:fa:da:ba:44:eb:49:e6:6e:a9:d4:4e:44:bd:
                    9d:76:e0:1e:0c:3c:d6:1e:00:0b:c1:6c:6f:6d:84:
                    a1:4f:ba:75:b3:51:41:b3:cd:c5:0e:f4:89:3e:86:
                    41:e7:aa:05:88:50:4a:c1:f8:72:a7:4d:45:c6:81:
                    43:b0:be:a5:bb:5c:5a:8c:d0:49:87:77:01:17:84:
                    8f:4b:1e:47:58:97:30:84:4f:dc:c0:48:3c:fd:38:
                    0d:2a:9b:58:6e:bc:9b:9d:3b:b4:71:46:cc:a4:b2:
                    74:30:69:f5:d0:6f:5d:88:f8:95:93:68:4c:51:f3:
                    49:be:8e:65:8e:2d:ef:ad:a2:9f:b4:e4:5a:df:cd:
                    6c:c0:40:df:3d:4c:98:0c:a5:3a:5c:31:6b:85:43:
                    98:90:30:3b:34:01:e4:64:dc:72:e2:10:ad:b9:17:
                    02:5b:79:cb:07:24:3e:94:19:bb:68:cb:f5:15:b1:
                    34:02:b7:a0:de:45:46:b1:e3:25:64:5f:5f:a6:50:
                    e5:cc:c3:cd:c1:d8:ee:cf:30:71:79:27:a8:59:c5:
                    97:e3:2a:43:2b:2a:54:27:f3:14:c7:1a:47:fb:3f:
                    62:91:64:e0:58:3c:e2:a9:18:51:25:7b:5b:74:af:
                    1f:c1:9d:d9:0f:82:e7:dd:b5:1e:92:0a:63:52:28:
                    71:c9
                Exponent: 65537 (0x10001)
        X509v3 extensions:
            X509v3 Basic Constraints: 
                CA:FALSE
            Netscape Comment: 
                OpenSSL Generated Certificate
            X509v3 Subject Key Identifier: 
                A0:0C:E3:66:EF:03:E6:AF:7B:A9:82:34:12:68:E8:41:3D:DA:6D:5D
            X509v3 Authority Key Identifier: 
                keyid:82:2D:31:BF:F0:46:5F:6B:B9:38:E2:14:E6:CB:FD:CC:10:C1:75:D2

    Signature Algorithm: sha256WithRSAEncryption
         73:38:0d:54:ca:26:d5:8c:23:04:15:8a:0f:7a:17:24:b8:b4:
         db:e2:ed:78:36:cc:63:e3:db:42:fd:35:44:8f:d9:4c:f7:f6:
         a6:7f:73:96:bc:aa:9f:15:db:42:9d:f5:26:c4:f6:c1:5b:c8:
         23:30:5b:95:bc:39:97:99:a4:6b:a2:a3:e5:4a:6c:d9:e6:5d:
         c4:88:25:6b:d3:f9:17:2e:1d:cf:b8:41:05:77:57:c5:b2:c4:
         12:2a:8c:92:dc:6a:88:e9:81:27:d3:45:84:e7:07:29:20:6e:
         fe:d1:98:2c:ee:2f:b1:da:c9:c3:6f:1e:24:a5:7b:27:4f:32:
         a5:1c:c2:fd:b0:8a:ea:df:e0:fd:5b:a6:9d:a0:df:25:d5:60:
         30:bd:8b:d4:ea:e4:90:97:53:b5:97:34:5f:cd:1f:97:66:b1:
         fb:5e:69:b8:73:cf:fb:f8:e6:95:7a:23:87:92:87:90:de:87:
         14:81:3a:50:3b:5a:35:9b:e8:e1:0e:eb:35:99:80:c6:ba:fb:
         10:8a:a3:1b:5c:83:d1:8f:f5:64:d0:d9:53:f6:4f:23:bf:cc:
         bc:e3:d0:25:5f:d5:dc:1a:78:e7:43:e0:5e:ce:58:39:86:ef:
         a3:43:d0:07:8b:0a:d6:7a:8c:1c:22:27:0e:28:07:f9:4d:c8:
         4d:92:9a:57
-----BEGIN CERTIFICATE-----
MIIDjTCCAnWgAwIBAgIBAjANBgkqhkiG9w0BAQsFADBOMQswCQYDVQQGEwJFUzET
MBEGA1UECAwKU29tZS1TdGF0ZTEUMBIGA1UECgwLcHJhY3RpY2EzQ0ExFDASBgNV
BAMMC3ByYWN0aWNhM0NBMB4XDTE3MTIyNjE3MTAyNFoXDTE4MTIyNjE3MTAyNFow
STELMAkGA1UEBhMCRVMxEzARBgNVBAgMClNvbWUtU3RhdGUxFDASBgNVBAoMC3By
YWN0aWNhM0NBMQ8wDQYDVQQDDAZzZXJ2ZXIwggEiMA0GCSqGSIb3DQEBAQUAA4IB
DwAwggEKAoIBAQCr+tq6ROtJ5m6p1E5EvZ124B4MPNYeAAvBbG9thKFPunWzUUGz
zcUO9Ik+hkHnqgWIUErB+HKnTUXGgUOwvqW7XFqM0EmHdwEXhI9LHkdYlzCET9zA
SDz9OA0qm1huvJudO7RxRsyksnQwafXQb12I+JWTaExR80m+jmWOLe+top+05Frf
zWzAQN89TJgMpTpcMWuFQ5iQMDs0AeRk3HLiEK25FwJbecsHJD6UGbtoy/UVsTQC
t6DeRUax4yVkX1+mUOXMw83B2O7PMHF5J6hZxZfjKkMrKlQn8xTHGkf7P2KRZOBY
POKpGFEle1t0rx/BndkPgufdtR6SCmNSKHHJAgMBAAGjezB5MAkGA1UdEwQCMAAw
LAYJYIZIAYb4QgENBB8WHU9wZW5TU0wgR2VuZXJhdGVkIENlcnRpZmljYXRlMB0G
A1UdDgQWBBSgDONm7wPmr3upgjQSaOhBPdptXTAfBgNVHSMEGDAWgBSCLTG/8EZf
a7k44hTmy/3MEMF10jANBgkqhkiG9w0BAQsFAAOCAQEAczgNVMom1YwjBBWKD3oX
JLi02+LteDbMY+PbQv01RI/ZTPf2pn9zlryqnxXbQp31JsT2wVvIIzBblbw5l5mk
a6Kj5Ups2eZdxIgla9P5Fy4dz7hBBXdXxbLEEiqMktxqiOmBJ9NFhOcHKSBu/tGY
LO4vsdrJw28eJKV7J08ypRzC/bCK6t/g/VumnaDfJdVgML2L1OrkkJdTtZc0X80f
l2ax+15puHPP+/jmlXojh5KHkN6HFIE6UDtaNZvo4Q7rNZmAxrr7EIqjG1yD0Y/1
ZNDZU/ZPI7/MvOPQJV/V3Bp450PgXs5YOYbvo0PQB4sK1nqMHCInDigH+U3ITZKa
Vw==
-----END CERTIFICATE-----
