Certificate:
    Data:
        Version: 3 (0x2)
        Serial Number: 1 (0x1)
    Signature Algorithm: sha256WithRSAEncryption
        Issuer: C=ES, ST=Some-State, O=practica3CA, CN=practica3CA
        Validity
            Not Before: Dec 26 12:18:56 2017 GMT
            Not After : Dec 26 12:18:56 2018 GMT
        Subject: C=ES, ST=Some-State, O=practica3CA, CN=client1
        Subject Public Key Info:
            Public Key Algorithm: rsaEncryption
                Public-Key: (2048 bit)
                Modulus:
                    00:a6:d4:ac:81:3f:5d:5d:b6:f6:97:ac:1b:d1:a4:
                    57:f6:35:19:04:e8:4d:e8:bc:4a:b6:b9:37:a5:7a:
                    e8:61:d2:26:5b:04:d7:80:1a:f8:3d:5a:d8:9a:33:
                    fd:d3:b1:a7:ba:27:04:3b:ce:55:7d:66:4f:df:bf:
                    96:d5:67:48:0a:47:c1:dc:97:b7:b6:c1:2f:0a:5b:
                    74:ca:92:2b:bf:fd:61:76:ba:d7:12:aa:ef:3e:e0:
                    36:42:bd:b1:28:85:58:13:73:27:42:c1:c2:6d:ee:
                    37:58:fa:f8:7a:69:1f:09:55:19:ea:58:bb:a9:31:
                    99:83:93:37:fd:a3:86:98:2a:fe:1d:bf:b8:a7:11:
                    85:60:92:2f:1b:19:57:8a:63:c0:c1:7f:ab:38:ff:
                    68:9e:98:19:9b:ea:41:f2:80:d3:12:dd:1a:6d:d3:
                    d5:b9:c0:6e:56:65:b9:91:d8:42:70:66:51:d0:e7:
                    31:b1:11:24:0f:6e:62:a4:ce:8d:1b:21:fc:60:ff:
                    c0:62:d3:39:4c:b1:36:64:e8:f6:c3:8f:e0:e0:c4:
                    bf:70:3b:00:22:42:52:3e:81:6a:f0:d0:74:97:81:
                    55:e5:26:c8:26:a9:7e:2c:4e:7f:f1:59:0e:3f:cf:
                    59:95:62:d6:19:9b:f6:e3:cf:04:63:25:7e:d1:d7:
                    cc:23
                Exponent: 65537 (0x10001)
        X509v3 extensions:
            X509v3 Basic Constraints: 
                CA:FALSE
            Netscape Comment: 
                OpenSSL Generated Certificate
            X509v3 Subject Key Identifier: 
                A4:B2:1D:FD:22:F8:57:14:20:E7:13:BC:A3:85:F7:66:D7:80:86:E3
            X509v3 Authority Key Identifier: 
                keyid:82:2D:31:BF:F0:46:5F:6B:B9:38:E2:14:E6:CB:FD:CC:10:C1:75:D2

    Signature Algorithm: sha256WithRSAEncryption
         ad:9b:d8:3a:71:84:39:50:d0:ac:a9:82:a6:fb:04:4d:b8:ad:
         47:d5:aa:12:fd:56:5f:a0:f0:9f:f9:46:d6:3f:5c:4a:9b:75:
         02:c2:7f:ad:8a:25:b8:04:d6:59:3f:34:d9:4c:88:2b:c6:c7:
         c8:f4:99:71:85:c3:15:fb:10:a5:c2:20:19:0b:58:f2:ec:9e:
         f6:ee:ac:f1:4f:96:e6:17:07:c0:48:b4:29:be:d6:5d:87:87:
         b7:81:7e:b9:f2:95:5c:8e:a7:27:ee:0f:8f:4b:01:e8:11:5a:
         fd:b8:08:55:81:30:69:d6:2c:e5:9f:ea:a7:46:1e:30:db:5d:
         be:2e:68:ff:78:45:d0:96:92:b0:74:03:6c:ac:eb:fc:11:20:
         36:55:77:33:06:6a:e1:12:4f:ac:56:e9:75:b9:ea:44:f9:a8:
         9f:07:99:2b:05:df:b8:39:a4:08:3f:00:b4:82:45:e2:a3:42:
         63:ec:dc:48:58:91:f2:7d:e7:17:94:07:c6:f6:12:e0:1f:2a:
         5c:e1:5f:bd:49:a1:26:a1:6f:9e:47:1a:3a:5f:cb:2b:e7:63:
         83:cf:3d:2e:ec:48:d2:1a:3d:96:0a:3b:1e:2c:69:e1:b5:fa:
         74:3d:d3:c3:a3:f1:2a:ab:19:fb:fe:83:af:f2:af:fe:2d:a9:
         1a:bb:17:ba
-----BEGIN CERTIFICATE-----
MIIDjjCCAnagAwIBAgIBATANBgkqhkiG9w0BAQsFADBOMQswCQYDVQQGEwJFUzET
MBEGA1UECAwKU29tZS1TdGF0ZTEUMBIGA1UECgwLcHJhY3RpY2EzQ0ExFDASBgNV
BAMMC3ByYWN0aWNhM0NBMB4XDTE3MTIyNjEyMTg1NloXDTE4MTIyNjEyMTg1Nlow
SjELMAkGA1UEBhMCRVMxEzARBgNVBAgMClNvbWUtU3RhdGUxFDASBgNVBAoMC3By
YWN0aWNhM0NBMRAwDgYDVQQDDAdjbGllbnQxMIIBIjANBgkqhkiG9w0BAQEFAAOC
AQ8AMIIBCgKCAQEAptSsgT9dXbb2l6wb0aRX9jUZBOhN6LxKtrk3pXroYdImWwTX
gBr4PVrYmjP907GnuicEO85VfWZP37+W1WdICkfB3Je3tsEvClt0ypIrv/1hdrrX
EqrvPuA2Qr2xKIVYE3MnQsHCbe43WPr4emkfCVUZ6li7qTGZg5M3/aOGmCr+Hb+4
pxGFYJIvGxlXimPAwX+rOP9onpgZm+pB8oDTEt0abdPVucBuVmW5kdhCcGZR0Ocx
sREkD25ipM6NGyH8YP/AYtM5TLE2ZOj2w4/g4MS/cDsAIkJSPoFq8NB0l4FV5SbI
Jql+LE5/8VkOP89ZlWLWGZv2488EYyV+0dfMIwIDAQABo3sweTAJBgNVHRMEAjAA
MCwGCWCGSAGG+EIBDQQfFh1PcGVuU1NMIEdlbmVyYXRlZCBDZXJ0aWZpY2F0ZTAd
BgNVHQ4EFgQUpLId/SL4VxQg5xO8o4X3ZteAhuMwHwYDVR0jBBgwFoAUgi0xv/BG
X2u5OOIU5sv9zBDBddIwDQYJKoZIhvcNAQELBQADggEBAK2b2DpxhDlQ0Kypgqb7
BE24rUfVqhL9Vl+g8J/5RtY/XEqbdQLCf62KJbgE1lk/NNlMiCvGx8j0mXGFwxX7
EKXCIBkLWPLsnvburPFPluYXB8BItCm+1l2Hh7eBfrnylVyOpyfuD49LAegRWv24
CFWBMGnWLOWf6qdGHjDbXb4uaP94RdCWkrB0A2ys6/wRIDZVdzMGauEST6xW6XW5
6kT5qJ8HmSsF37g5pAg/ALSCReKjQmPs3EhYkfJ95xeUB8b2EuAfKlzhX71JoSah
b55HGjpfyyvnY4PPPS7sSNIaPZYKOx4saeG1+nQ908Oj8SqrGfv+g6/yr/4tqRq7
F7o=
-----END CERTIFICATE-----
